target datalayout = "e-m:e-p270:32:32-p271:32:32-p272:64:64-i64:64-i128:128-f80:128-n8:16:32:64-S128"
target triple = "x86_64-pc-linux-gnu"

%struct.code = type { i8, i8, i16 }
%struct.z_stream_s = type { ptr, i32, i64, ptr, i32, i64, ptr, ptr, ptr, ptr, ptr, i32, i64, i64 }
%struct.inflate_state = type { i32, i32, i32, i32, i32, i32, i64, i64, ptr, i32, i32, i32, i32, ptr, i64, i32, i32, i32, i32, ptr, ptr, i32, i32, i32, i32, i32, i32, ptr, [320 x i16], [288 x i16], [1444 x %struct.code], i32, i32, i32 }

; Function Attrs: nounwind uwtable
define internal i32 @updatewindow(ptr noundef %0, ptr noundef %1, i32 noundef %2) #0 {
  %4 = alloca i32, align 4
  %5 = alloca ptr, align 8
  %6 = alloca ptr, align 8
  %7 = alloca i32, align 4
  %8 = alloca ptr, align 8
  %9 = alloca i32, align 4
  %10 = alloca i32, align 4
  store ptr %0, ptr %5, align 8, !tbaa !3
  store ptr %1, ptr %6, align 8, !tbaa !44
  store i32 %2, ptr %7, align 4, !tbaa !39
  call void @llvm.lifetime.start.p0(i64 8, ptr %8) #4
  call void @llvm.lifetime.start.p0(i64 4, ptr %9) #4
  %11 = load ptr, ptr %5, align 8, !tbaa !3
  %12 = getelementptr inbounds nuw %struct.z_stream_s, ptr %11, i32 0, i32 7
  %13 = load ptr, ptr %12, align 8, !tbaa !8
  store ptr %13, ptr %8, align 8, !tbaa !14
  %14 = load ptr, ptr %8, align 8, !tbaa !14
  %15 = getelementptr inbounds nuw %struct.inflate_state, ptr %14, i32 0, i32 13
  %16 = load ptr, ptr %15, align 8, !tbaa !40
  %17 = icmp eq ptr %16, null
  br i1 %17, label %18, label %38

18:                                               ; preds = %3
  %19 = load ptr, ptr %5, align 8, !tbaa !3
  %20 = getelementptr inbounds nuw %struct.z_stream_s, ptr %19, i32 0, i32 8
  %21 = load ptr, ptr %20, align 8, !tbaa !46
  %22 = load ptr, ptr %5, align 8, !tbaa !3
  %23 = getelementptr inbounds nuw %struct.z_stream_s, ptr %22, i32 0, i32 10
  %24 = load ptr, ptr %23, align 8, !tbaa !43
  %25 = load ptr, ptr %8, align 8, !tbaa !14
  %26 = getelementptr inbounds nuw %struct.inflate_state, ptr %25, i32 0, i32 9
  %27 = load i32, ptr %26, align 8, !tbaa !41
  %28 = shl i32 1, %27
  %29 = call ptr %21(ptr noundef %24, i32 noundef %28, i32 noundef 1)
  %30 = load ptr, ptr %8, align 8, !tbaa !14
  %31 = getelementptr inbounds nuw %struct.inflate_state, ptr %30, i32 0, i32 13
  store ptr %29, ptr %31, align 8, !tbaa !40
  %32 = load ptr, ptr %8, align 8, !tbaa !14
  %33 = getelementptr inbounds nuw %struct.inflate_state, ptr %32, i32 0, i32 13
  %34 = load ptr, ptr %33, align 8, !tbaa !40
  %35 = icmp eq ptr %34, null
  br i1 %35, label %36, label %37

36:                                               ; preds = %18
  store i32 1, ptr %4, align 4
  store i32 1, ptr %10, align 4
  br label %168

37:                                               ; preds = %18
  br label %38

38:                                               ; preds = %37, %3
  %39 = load ptr, ptr %8, align 8, !tbaa !14
  %40 = getelementptr inbounds nuw %struct.inflate_state, ptr %39, i32 0, i32 10
  %41 = load i32, ptr %40, align 4, !tbaa !36
  %42 = icmp eq i32 %41, 0
  br i1 %42, label %43, label %54

43:                                               ; preds = %38
  %44 = load ptr, ptr %8, align 8, !tbaa !14
  %45 = getelementptr inbounds nuw %struct.inflate_state, ptr %44, i32 0, i32 9
  %46 = load i32, ptr %45, align 8, !tbaa !41
  %47 = shl i32 1, %46
  %48 = load ptr, ptr %8, align 8, !tbaa !14
  %49 = getelementptr inbounds nuw %struct.inflate_state, ptr %48, i32 0, i32 10
  store i32 %47, ptr %49, align 4, !tbaa !36
  %50 = load ptr, ptr %8, align 8, !tbaa !14
  %51 = getelementptr inbounds nuw %struct.inflate_state, ptr %50, i32 0, i32 12
  store i32 0, ptr %51, align 4, !tbaa !38
  %52 = load ptr, ptr %8, align 8, !tbaa !14
  %53 = getelementptr inbounds nuw %struct.inflate_state, ptr %52, i32 0, i32 11
  store i32 0, ptr %53, align 8, !tbaa !37
  br label %54

54:                                               ; preds = %43, %38
  %55 = load i32, ptr %7, align 4, !tbaa !39
  %56 = load ptr, ptr %8, align 8, !tbaa !14
  %57 = getelementptr inbounds nuw %struct.inflate_state, ptr %56, i32 0, i32 10
  %58 = load i32, ptr %57, align 4, !tbaa !36
  %59 = icmp uge i32 %55, %58
  br i1 %59, label %60, label %82

60:                                               ; preds = %54
  %61 = load ptr, ptr %8, align 8, !tbaa !14
  %62 = getelementptr inbounds nuw %struct.inflate_state, ptr %61, i32 0, i32 13
  %63 = load ptr, ptr %62, align 8, !tbaa !40
  %64 = load ptr, ptr %6, align 8, !tbaa !44
  %65 = load ptr, ptr %8, align 8, !tbaa !14
  %66 = getelementptr inbounds nuw %struct.inflate_state, ptr %65, i32 0, i32 10
  %67 = load i32, ptr %66, align 4, !tbaa !36
  %68 = zext i32 %67 to i64
  %69 = sub i64 0, %68
  %70 = getelementptr inbounds i8, ptr %64, i64 %69
  %71 = load ptr, ptr %8, align 8, !tbaa !14
  %72 = getelementptr inbounds nuw %struct.inflate_state, ptr %71, i32 0, i32 10
  %73 = load i32, ptr %72, align 4, !tbaa !36
  %74 = zext i32 %73 to i64
  call void @llvm.memcpy.p0.p0.i64(ptr align 1 %63, ptr align 1 %70, i64 %74, i1 false)
  %75 = load ptr, ptr %8, align 8, !tbaa !14
  %76 = getelementptr inbounds nuw %struct.inflate_state, ptr %75, i32 0, i32 12
  store i32 0, ptr %76, align 4, !tbaa !38
  %77 = load ptr, ptr %8, align 8, !tbaa !14
  %78 = getelementptr inbounds nuw %struct.inflate_state, ptr %77, i32 0, i32 10
  %79 = load i32, ptr %78, align 4, !tbaa !36
  %80 = load ptr, ptr %8, align 8, !tbaa !14
  %81 = getelementptr inbounds nuw %struct.inflate_state, ptr %80, i32 0, i32 11
  store i32 %79, ptr %81, align 8, !tbaa !37
  br label %167

82:                                               ; preds = %54
  %83 = load ptr, ptr %8, align 8, !tbaa !14
  %84 = getelementptr inbounds nuw %struct.inflate_state, ptr %83, i32 0, i32 10
  %85 = load i32, ptr %84, align 4, !tbaa !36
  %86 = load ptr, ptr %8, align 8, !tbaa !14
  %87 = getelementptr inbounds nuw %struct.inflate_state, ptr %86, i32 0, i32 12
  %88 = load i32, ptr %87, align 4, !tbaa !38
  %89 = sub i32 %85, %88
  store i32 %89, ptr %9, align 4, !tbaa !39
  %90 = load i32, ptr %9, align 4, !tbaa !39
  %91 = load i32, ptr %7, align 4, !tbaa !39
  %92 = icmp ugt i32 %90, %91
  br i1 %92, label %93, label %95

93:                                               ; preds = %82
  %94 = load i32, ptr %7, align 4, !tbaa !39
  store i32 %94, ptr %9, align 4, !tbaa !39
  br label %95

95:                                               ; preds = %93, %82
  %96 = load ptr, ptr %8, align 8, !tbaa !14
  %97 = getelementptr inbounds nuw %struct.inflate_state, ptr %96, i32 0, i32 13
  %98 = load ptr, ptr %97, align 8, !tbaa !40
  %99 = load ptr, ptr %8, align 8, !tbaa !14
  %100 = getelementptr inbounds nuw %struct.inflate_state, ptr %99, i32 0, i32 12
  %101 = load i32, ptr %100, align 4, !tbaa !38
  %102 = zext i32 %101 to i64
  %103 = getelementptr inbounds nuw i8, ptr %98, i64 %102
  %104 = load ptr, ptr %6, align 8, !tbaa !44
  %105 = load i32, ptr %7, align 4, !tbaa !39
  %106 = zext i32 %105 to i64
  %107 = sub i64 0, %106
  %108 = getelementptr inbounds i8, ptr %104, i64 %107
  %109 = load i32, ptr %9, align 4, !tbaa !39
  %110 = zext i32 %109 to i64
  call void @llvm.memcpy.p0.p0.i64(ptr align 1 %103, ptr align 1 %108, i64 %110, i1 false)
  %111 = load i32, ptr %9, align 4, !tbaa !39
  %112 = load i32, ptr %7, align 4, !tbaa !39
  %113 = sub i32 %112, %111
  store i32 %113, ptr %7, align 4, !tbaa !39
  %114 = load i32, ptr %7, align 4, !tbaa !39
  %115 = icmp ne i32 %114, 0
  br i1 %115, label %116, label %135

116:                                              ; preds = %95
  %117 = load ptr, ptr %8, align 8, !tbaa !14
  %118 = getelementptr inbounds nuw %struct.inflate_state, ptr %117, i32 0, i32 13
  %119 = load ptr, ptr %118, align 8, !tbaa !40
  %120 = load ptr, ptr %6, align 8, !tbaa !44
  %121 = load i32, ptr %7, align 4, !tbaa !39
  %122 = zext i32 %121 to i64
  %123 = sub i64 0, %122
  %124 = getelementptr inbounds i8, ptr %120, i64 %123
  %125 = load i32, ptr %7, align 4, !tbaa !39
  %126 = zext i32 %125 to i64
  call void @llvm.memcpy.p0.p0.i64(ptr align 1 %119, ptr align 1 %124, i64 %126, i1 false)
  %127 = load i32, ptr %7, align 4, !tbaa !39
  %128 = load ptr, ptr %8, align 8, !tbaa !14
  %129 = getelementptr inbounds nuw %struct.inflate_state, ptr %128, i32 0, i32 12
  store i32 %127, ptr %129, align 4, !tbaa !38
  %130 = load ptr, ptr %8, align 8, !tbaa !14
  %131 = getelementptr inbounds nuw %struct.inflate_state, ptr %130, i32 0, i32 10
  %132 = load i32, ptr %131, align 4, !tbaa !36
  %133 = load ptr, ptr %8, align 8, !tbaa !14
  %134 = getelementptr inbounds nuw %struct.inflate_state, ptr %133, i32 0, i32 11
  store i32 %132, ptr %134, align 8, !tbaa !37
  br label %166

135:                                              ; preds = %95
  %136 = load i32, ptr %9, align 4, !tbaa !39
  %137 = load ptr, ptr %8, align 8, !tbaa !14
  %138 = getelementptr inbounds nuw %struct.inflate_state, ptr %137, i32 0, i32 12
  %139 = load i32, ptr %138, align 4, !tbaa !38
  %140 = add i32 %139, %136
  store i32 %140, ptr %138, align 4, !tbaa !38
  %141 = load ptr, ptr %8, align 8, !tbaa !14
  %142 = getelementptr inbounds nuw %struct.inflate_state, ptr %141, i32 0, i32 12
  %143 = load i32, ptr %142, align 4, !tbaa !38
  %144 = load ptr, ptr %8, align 8, !tbaa !14
  %145 = getelementptr inbounds nuw %struct.inflate_state, ptr %144, i32 0, i32 10
  %146 = load i32, ptr %145, align 4, !tbaa !36
  %147 = icmp eq i32 %143, %146
  br i1 %147, label %148, label %151

148:                                              ; preds = %135
  %149 = load ptr, ptr %8, align 8, !tbaa !14
  %150 = getelementptr inbounds nuw %struct.inflate_state, ptr %149, i32 0, i32 12
  store i32 0, ptr %150, align 4, !tbaa !38
  br label %151

151:                                              ; preds = %148, %135
  %152 = load ptr, ptr %8, align 8, !tbaa !14
  %153 = getelementptr inbounds nuw %struct.inflate_state, ptr %152, i32 0, i32 11
  %154 = load i32, ptr %153, align 8, !tbaa !37
  %155 = load ptr, ptr %8, align 8, !tbaa !14
  %156 = getelementptr inbounds nuw %struct.inflate_state, ptr %155, i32 0, i32 10
  %157 = load i32, ptr %156, align 4, !tbaa !36
  %158 = icmp ult i32 %154, %157
  br i1 %158, label %159, label %165

159:                                              ; preds = %151
  %160 = load i32, ptr %9, align 4, !tbaa !39
  %161 = load ptr, ptr %8, align 8, !tbaa !14
  %162 = getelementptr inbounds nuw %struct.inflate_state, ptr %161, i32 0, i32 11
  %163 = load i32, ptr %162, align 8, !tbaa !37
  %164 = add i32 %163, %160
  store i32 %164, ptr %162, align 8, !tbaa !37
  br label %165

165:                                              ; preds = %159, %151
  br label %166

166:                                              ; preds = %165, %116
  br label %167

167:                                              ; preds = %166, %60
  store i32 0, ptr %4, align 4
  store i32 1, ptr %10, align 4
  br label %168

168:                                              ; preds = %167, %36
  call void @llvm.lifetime.end.p0(i64 4, ptr %9) #4
  call void @llvm.lifetime.end.p0(i64 8, ptr %8) #4
  %169 = load i32, ptr %4, align 4
  ret i32 %169
}

; Function Attrs: nounwind uwtable
define i32 @inflateSetDictionary(ptr noundef %0, ptr noundef %1, i32 noundef %2) #0 {
  %4 = alloca i32, align 4
  %5 = alloca ptr, align 8
  %6 = alloca ptr, align 8
  %7 = alloca i32, align 4
  %8 = alloca ptr, align 8
  %9 = alloca i64, align 8
  %10 = alloca i32, align 4
  %11 = alloca i32, align 4
  store ptr %0, ptr %5, align 8, !tbaa !3
  store ptr %1, ptr %6, align 8, !tbaa !44
  store i32 %2, ptr %7, align 4, !tbaa !39
  call void @llvm.lifetime.start.p0(i64 8, ptr %8) #4
  call void @llvm.lifetime.start.p0(i64 8, ptr %9) #4
  call void @llvm.lifetime.start.p0(i64 4, ptr %10) #4
  %12 = load ptr, ptr %5, align 8, !tbaa !3
  %13 = icmp eq ptr %12, null
  br i1 %13, label %19, label %14

14:                                               ; preds = %3
  %15 = load ptr, ptr %5, align 8, !tbaa !3
  %16 = getelementptr inbounds nuw %struct.z_stream_s, ptr %15, i32 0, i32 7
  %17 = load ptr, ptr %16, align 8, !tbaa !8
  %18 = icmp eq ptr %17, null
  br i1 %18, label %19, label %20

19:                                               ; preds = %14, %3
  store i32 -2, ptr %4, align 4
  store i32 1, ptr %11, align 4
  br label %68

20:                                               ; preds = %14
  %21 = load ptr, ptr %5, align 8, !tbaa !3
  %22 = getelementptr inbounds nuw %struct.z_stream_s, ptr %21, i32 0, i32 7
  %23 = load ptr, ptr %22, align 8, !tbaa !8
  store ptr %23, ptr %8, align 8, !tbaa !14
  %24 = load ptr, ptr %8, align 8, !tbaa !14
  %25 = getelementptr inbounds nuw %struct.inflate_state, ptr %24, i32 0, i32 2
  %26 = load i32, ptr %25, align 8, !tbaa !22
  %27 = icmp ne i32 %26, 0
  br i1 %27, label %28, label %34

28:                                               ; preds = %20
  %29 = load ptr, ptr %8, align 8, !tbaa !14
  %30 = getelementptr inbounds nuw %struct.inflate_state, ptr %29, i32 0, i32 0
  %31 = load i32, ptr %30, align 8, !tbaa !24
  %32 = icmp ne i32 %31, 10
  br i1 %32, label %33, label %34

33:                                               ; preds = %28
  store i32 -2, ptr %4, align 4
  store i32 1, ptr %11, align 4
  br label %68

34:                                               ; preds = %28, %20
  %35 = load ptr, ptr %8, align 8, !tbaa !14
  %36 = getelementptr inbounds nuw %struct.inflate_state, ptr %35, i32 0, i32 0
  %37 = load i32, ptr %36, align 8, !tbaa !24
  %38 = icmp eq i32 %37, 10
  br i1 %38, label %39, label %52

39:                                               ; preds = %34
  %40 = call i64 @adler32(i64 noundef 0, ptr noundef null, i32 noundef 0)
  store i64 %40, ptr %9, align 8, !tbaa !51
  %41 = load i64, ptr %9, align 8, !tbaa !51
  %42 = load ptr, ptr %6, align 8, !tbaa !44
  %43 = load i32, ptr %7, align 4, !tbaa !39
  %44 = call i64 @adler32(i64 noundef %41, ptr noundef %42, i32 noundef %43)
  store i64 %44, ptr %9, align 8, !tbaa !51
  %45 = load i64, ptr %9, align 8, !tbaa !51
  %46 = load ptr, ptr %8, align 8, !tbaa !14
  %47 = getelementptr inbounds nuw %struct.inflate_state, ptr %46, i32 0, i32 6
  %48 = load i64, ptr %47, align 8, !tbaa !54
  %49 = icmp ne i64 %45, %48
  br i1 %49, label %50, label %51

50:                                               ; preds = %39
  store i32 -3, ptr %4, align 4
  store i32 1, ptr %11, align 4
  br label %68

51:                                               ; preds = %39
  br label %52

52:                                               ; preds = %51, %34
  %53 = load ptr, ptr %5, align 8, !tbaa !3
  %54 = load ptr, ptr %6, align 8, !tbaa !44
  %55 = load i32, ptr %7, align 4, !tbaa !39
  %56 = zext i32 %55 to i64
  %57 = getelementptr inbounds nuw i8, ptr %54, i64 %56
  %58 = load i32, ptr %7, align 4, !tbaa !39
  %59 = call i32 @updatewindow(ptr noundef %53, ptr noundef %57, i32 noundef %58)
  store i32 %59, ptr %10, align 4, !tbaa !39
  %60 = load i32, ptr %10, align 4, !tbaa !39
  %61 = icmp ne i32 %60, 0
  br i1 %61, label %62, label %65

62:                                               ; preds = %52
  %63 = load ptr, ptr %8, align 8, !tbaa !14
  %64 = getelementptr inbounds nuw %struct.inflate_state, ptr %63, i32 0, i32 0
  store i32 30, ptr %64, align 8, !tbaa !24
  store i32 -4, ptr %4, align 4
  store i32 1, ptr %11, align 4
  br label %68

65:                                               ; preds = %52
  %66 = load ptr, ptr %8, align 8, !tbaa !14
  %67 = getelementptr inbounds nuw %struct.inflate_state, ptr %66, i32 0, i32 3
  store i32 1, ptr %67, align 4, !tbaa !26
  store i32 0, ptr %4, align 4
  store i32 1, ptr %11, align 4
  br label %68

68:                                               ; preds = %65, %62, %50, %33, %19
  call void @llvm.lifetime.end.p0(i64 4, ptr %10) #4
  call void @llvm.lifetime.end.p0(i64 8, ptr %9) #4
  call void @llvm.lifetime.end.p0(i64 8, ptr %8) #4
  %69 = load i32, ptr %4, align 4
  ret i32 %69
}